; Function Attrs: mustprogress uwtable
define hidden void @_ZNK8facebook6hermes7tracing10SynthTrace34GetNativePropertyNamesReturnRecord14toJSONInternalERN6hermes11JSONEmitterE(ptr noundef nonnull align 8 dereferenceable(40) %this, ptr noundef nonnull align 8 dereferenceable(72) %json) unnamed_addr #1 align 2 {
entry:
  tail call void @_ZNK8facebook6hermes7tracing10SynthTrace6Record14toJSONInternalERN6hermes11JSONEmitterE(ptr noundef nonnull align 8 dereferenceable(16) %this, ptr noundef nonnull align 8 dereferenceable(72) %json)
  tail call void @_ZN6hermes11JSONEmitter7emitKeyEN4llvh9StringRefE(ptr noundef nonnull align 8 dereferenceable(72) %json, ptr nonnull @.str.77, i64 10)
  tail call void @_ZN6hermes11JSONEmitter9openArrayEv(ptr noundef nonnull align 8 dereferenceable(72) %json)
  %propNames_ = getelementptr inbounds i8, ptr %this, i64 16
  %0 = load ptr, ptr %propNames_, align 8
  %_M_finish.i = getelementptr inbounds i8, ptr %this, i64 24
  %1 = load ptr, ptr %_M_finish.i, align 8
  %cmp.i.not11 = icmp eq ptr %0, %1
  br i1 %cmp.i.not11, label %for.end, label %for.body

for.body:                                         ; preds = %entry, %for.body
  %__begin2.sroa.0.012 = phi ptr [ %incdec.ptr.i, %for.body ], [ %0, %entry ]
  %call.i11 = tail call noundef ptr @_ZNKSt7__cxx1112basic_stringIcSt11char_traitsIcESaIcEE4dataEv(ptr noundef nonnull align 8 dereferenceable(32) %__begin2.sroa.0.012) #23
  %call2.i = tail call noundef i64 @_ZNKSt7__cxx1112basic_stringIcSt11char_traitsIcESaIcEE6lengthEv(ptr noundef nonnull align 8 dereferenceable(32) %__begin2.sroa.0.012) #23
  tail call void @_ZN6hermes11JSONEmitter9emitValueEN4llvh9StringRefE(ptr noundef nonnull align 8 dereferenceable(72) %json, ptr %call.i11, i64 %call2.i)
  %incdec.ptr.i = getelementptr inbounds i8, ptr %__begin2.sroa.0.012, i64 32
  %cmp.i.not = icmp eq ptr %incdec.ptr.i, %1
  br i1 %cmp.i.not, label %for.end, label %for.body

for.end:                                          ; preds = %for.body, %entry
  tail call void @_ZN6hermes11JSONEmitter10closeArrayEv(ptr noundef nonnull align 8 dereferenceable(72) %json)
  ret void
}